_ZN2ai7ElementD1Ev = __main_start + 0x02a01430;
_ZN2ai7ElementD0Ev = __main_start + 0x02a01454;
_ZN2ai7Element10initializeERKNS_11NodeInitArgE = __main_start + 0x02a014d4;
_ZN2ai7Element20initializeParametersEPb = __main_start + 0x02a014d8;
_ZN2ai7Element5enterERKNS_11NodeCalcArgE = __main_start + 0x02a014dc;
_ZN2ai7Element6updateERKNS_11NodeCalcArgE = __main_start + 0x02a014e0;
_ZN2ai7Element5leaveERKNS_11NodeCalcArgE = __main_start + 0x02a014e4;
_ZN2ai7Element18postUpdateChildrenERKNS_11NodeCalcArgE = __main_start + 0x026543d0;
_ZN2ai7Element10hasOutputsEv = __main_start + 0x02a014e8;
_ZN2ai7Element26isDisableEnterInRootUpdateEv = __main_start + 0x02654428;
_ZN2ai7Element5f0x60Ev = __main_start + 0x02654430;
_ZN2ai7Element16isNoCalcChildrenEv = __main_start + 0x02780e38;
_ZN2ai7Element25isStateEndForModuleCallerEv = __main_start + 0x02654440;
_ZN2ai7Element9getResultEv = __main_start + 0x02780e44;
_ZN2ai7Element16updateActiveNodeEv = __main_start + 0x00787710;
_ZN2ai7Element7getNameEv = __main_start + 0x02a014f0;
_ZN2ai7Element11getCategoryEv = __main_start + 0x02a014fc;
_ZN2ai7Element18getLocalParametersEv = __main_start + 0x02654460;
_ZN2ai7Element18updateUpdateStatusEv = __main_start + 0x02654488;
_ZN2ai7Element21isNoCalcChildrenImpl_Ev = __main_start + 0x02780e68;
_ZN2ai7Element18isChildNotRequiredEv = __main_start + 0x02780e70;
_ZN2ai7Element18evaluateExpressionEbb = __main_start + 0x00adfff8;

_ZN2ai4NodeD1Ev = __main_start + 0x0109e2ec;
_ZN2ai4NodeD0Ev = __main_start + 0x029ff660;
_ZN2ai4Node10initializeERKNS_11NodeInitArgE = __main_start + 0x0225652c;
_ZN2ai4Node20initializeParametersEPb = __main_start + 0x029ff710;
_ZN2ai4Node5enterERKNS_11NodeCalcArgE = __main_start + 0x029ff74c;
_ZN2ai4Node6updateERKNS_11NodeCalcArgE = __main_start + 0x029ff78c;
_ZN2ai4Node5leaveERKNS_11NodeCalcArgE = __main_start + 0x029ff798;
_ZN2ai4Node10hasOutputsEv = __main_start + 0x026543d4;
_ZN2ai4Node7getNameEv = __main_start + 0x0278de1c;
_ZN2ai4Node11getCategoryEv = __main_start + 0x0278de28;
_ZN2ai4Node16parseParameters_Ev = __main_start + 0x0278de34;
_ZN2ai4Node10enterImpl_ERKNS_11NodeCalcArgE = __main_start + 0x027a7820;
_ZN2ai4Node11updateImpl_ERKNS_11NodeCalcArgE = __main_start + 0x0278de38;
_ZN2ai4Node10leaveImpl_ERKNS_11NodeCalcArgE = __main_start + 0x0278de3c;
_ZN2ai4Node15initializeImpl_Ev = __main_start + 0x02780e78;
_ZN2ai4Node25initializeParametersImpl_Ev = __main_start + 0x0265449c;
_ZN2ai4Node5f0xf0Ev = __main_start + 0x026544a0;
_ZN2ai4Node5f0xf8Ev = __main_start + 0x026544a4;
