_ZN2ai4Node16parseS32PropertyERKN4sead14SafeStringBaseIcEERNS_8PropertyILNS_13ParameterTypeE0EEEbb = __main_start + 0x007485cc;
_ZN2ai4Node17parseBoolPropertyERKN4sead14SafeStringBaseIcEERNS_8PropertyILNS_13ParameterTypeE1EEEbb = __main_start + 0x0073425c;
_ZN2ai4Node16parseF32PropertyERKN4sead14SafeStringBaseIcEERNS_8PropertyILNS_13ParameterTypeE2EEEbb = __main_start + 0x0082b480;
_ZN2ai4Node16parseStrPropertyERKN4sead14SafeStringBaseIcEERNS_8PropertyILNS_13ParameterTypeE3EEEbb = __main_start + 0x00782224;
_ZN2ai4Node18parseVec3fPropertyERKN4sead14SafeStringBaseIcEERNS_8PropertyILNS_13ParameterTypeE4EEEbb = __main_start + 0x00f7e368;

_ZN2ai4Node13parseS32InputERKN4sead14SafeStringBaseIcEERNS_5InputILNS_13ParameterTypeE0EEEbb = __main_start + 0x007517ec;
_ZN2ai4Node14parseBoolInputERKN4sead14SafeStringBaseIcEERNS_5InputILNS_13ParameterTypeE1EEEbb = __main_start + 0x00766350;
_ZN2ai4Node13parseF32InputERKN4sead14SafeStringBaseIcEERNS_5InputILNS_13ParameterTypeE2EEEbb = __main_start + 0x0081e238;
_ZN2ai4Node13parseStrInputERKN4sead14SafeStringBaseIcEERNS_5InputILNS_13ParameterTypeE3EEEbb = __main_start + 0x00752160;
_ZN2ai4Node15parseVec3fInputERKN4sead14SafeStringBaseIcEERNS_5InputILNS_13ParameterTypeE4EEEbb = __main_start + 0x0085f0c4;
_ZN2ai4Node13parsePtrInputERKN4sead14SafeStringBaseIcEERNS_5InputILNS_13ParameterTypeE5EEEbPS4_ = __main_start + 0x0081294c;

_ZN2ai4Node14parseS32OutputERKN4sead14SafeStringBaseIcEERNS_6OutputILNS_13ParameterTypeE0EEEb = __main_start + 0x00772234;
_ZN2ai4Node15parseBoolOutputERKN4sead14SafeStringBaseIcEERNS_6OutputILNS_13ParameterTypeE1EEEb = __main_start + 0x00766ec8;
_ZN2ai4Node14parseF32OutputERKN4sead14SafeStringBaseIcEERNS_6OutputILNS_13ParameterTypeE2EEEb = __main_start + 0x00771f90;
_ZN2ai4Node14parseStrOutputERKN4sead14SafeStringBaseIcEERNS_6OutputILNS_13ParameterTypeE3EEEb = __main_start + 0x007467a4;
_ZN2ai4Node16parseVec3fOutputERKN4sead14SafeStringBaseIcEERNS_6OutputILNS_13ParameterTypeE4EEEb = __main_start + 0x00771cd4;
_ZN2ai4Node14parsePtrOutputERKN4sead14SafeStringBaseIcEERNS_6OutputILNS_13ParameterTypeE5EEEbPS4_ = __main_start + 0x00786d2c;

_ZN2ai6OutputILNS_13ParameterTypeE0EE3setEi = __main_start + 0x00fc10ac;
_ZN2ai6OutputILNS_13ParameterTypeE1EE3setEb = __main_start + 0x00cd0930;
_ZN2ai6OutputILNS_13ParameterTypeE2EE3setEf = __main_start + 0x0103ed6c;
_ZN2ai6OutputILNS_13ParameterTypeE3EE3setEPKc = __main_start + 0x010e48a8;
_ZN2ai6OutputILNS_13ParameterTypeE4EE3setERKN4sead7Vector3IfEE = __main_start + 0x00f451a4;
